; Function Attrs: nounwind uwtable
define ptr @l_Array_foldrMUnsafe_fold___at_Lean_Meta_IndPredBelow_mkContext_addMotives___spec__1___lambda__1___boxed(ptr noundef %0, ptr noundef %1, ptr noundef %2, ptr noundef %3, ptr noundef %4, ptr noundef %5, ptr noundef %6, ptr noundef %7, ptr noundef %8) #0 {
  %10 = tail call ptr @l_Array_insertIdxIfInBounds___rarg(ptr noundef %0, ptr noundef %1, ptr noundef %3) #6
  %11 = tail call ptr @l_Lean_Meta_mkForallFVars(ptr noundef %10, ptr noundef %2, i8 noundef zeroext 0, i8 noundef zeroext 1, i8 noundef zeroext 1, ptr noundef %4, ptr noundef %5, ptr noundef %6, ptr noundef %7, ptr noundef %8) #6
  %12 = ptrtoint ptr %10 to i64
  %13 = and i64 %12, 1
  %.not.i27 = icmp eq i64 %13, 0
  br i1 %.not.i27, label %14, label %l_Array_foldrMUnsafe_fold___at_Lean_Meta_IndPredBelow_mkContext_addMotives___spec__1___lambda__1.exit

14:                                               ; preds = %9
  %15 = load i32, ptr %10, align 4, !tbaa !12
  %16 = icmp sgt i32 %15, 1
  br i1 %16, label %17, label %19, !prof !11

17:                                               ; preds = %14
  %18 = add nsw i32 %15, -1
  store i32 %18, ptr %10, align 4, !tbaa !12
  br label %l_Array_foldrMUnsafe_fold___at_Lean_Meta_IndPredBelow_mkContext_addMotives___spec__1___lambda__1.exit

19:                                               ; preds = %14
  %.not.i.i = icmp eq i32 %15, 0
  br i1 %.not.i.i, label %l_Array_foldrMUnsafe_fold___at_Lean_Meta_IndPredBelow_mkContext_addMotives___spec__1___lambda__1.exit, label %20

20:                                               ; preds = %19
  tail call void @lean_dec_ref_cold(ptr noundef nonnull %10) #6
  br label %l_Array_foldrMUnsafe_fold___at_Lean_Meta_IndPredBelow_mkContext_addMotives___spec__1___lambda__1.exit

l_Array_foldrMUnsafe_fold___at_Lean_Meta_IndPredBelow_mkContext_addMotives___spec__1___lambda__1.exit: ; preds = %9, %17, %19, %20
  %21 = ptrtoint ptr %7 to i64
  %22 = and i64 %21, 1
  %.not = icmp eq i64 %22, 0
  br i1 %.not, label %23, label %lean_dec.exit18

23:                                               ; preds = %l_Array_foldrMUnsafe_fold___at_Lean_Meta_IndPredBelow_mkContext_addMotives___spec__1___lambda__1.exit
  %24 = load i32, ptr %7, align 4, !tbaa !12
  %25 = icmp sgt i32 %24, 1
  br i1 %25, label %26, label %28, !prof !11

26:                                               ; preds = %23
  %27 = add nsw i32 %24, -1
  store i32 %27, ptr %7, align 4, !tbaa !12
  br label %lean_dec.exit18

28:                                               ; preds = %23
  %.not.i = icmp eq i32 %24, 0
  br i1 %.not.i, label %lean_dec.exit18, label %29

29:                                               ; preds = %28
  tail call void @lean_dec_ref_cold(ptr noundef nonnull %7) #6
  br label %lean_dec.exit18

lean_dec.exit18:                                  ; preds = %29, %28, %26, %l_Array_foldrMUnsafe_fold___at_Lean_Meta_IndPredBelow_mkContext_addMotives___spec__1___lambda__1.exit
  %30 = ptrtoint ptr %6 to i64
  %31 = and i64 %30, 1
  %.not28 = icmp eq i64 %31, 0
  br i1 %.not28, label %32, label %lean_dec.exit17

32:                                               ; preds = %lean_dec.exit18
  %33 = load i32, ptr %6, align 4, !tbaa !12
  %34 = icmp sgt i32 %33, 1
  br i1 %34, label %35, label %37, !prof !11

35:                                               ; preds = %32
  %36 = add nsw i32 %33, -1
  store i32 %36, ptr %6, align 4, !tbaa !12
  br label %lean_dec.exit17

37:                                               ; preds = %32
  %.not.i19 = icmp eq i32 %33, 0
  br i1 %.not.i19, label %lean_dec.exit17, label %38

38:                                               ; preds = %37
  tail call void @lean_dec_ref_cold(ptr noundef nonnull %6) #6
  br label %lean_dec.exit17

lean_dec.exit17:                                  ; preds = %38, %37, %35, %lean_dec.exit18
  %39 = ptrtoint ptr %5 to i64
  %40 = and i64 %39, 1
  %.not29 = icmp eq i64 %40, 0
  br i1 %.not29, label %41, label %lean_dec.exit16

41:                                               ; preds = %lean_dec.exit17
  %42 = load i32, ptr %5, align 4, !tbaa !12
  %43 = icmp sgt i32 %42, 1
  br i1 %43, label %44, label %46, !prof !11

44:                                               ; preds = %41
  %45 = add nsw i32 %42, -1
  store i32 %45, ptr %5, align 4, !tbaa !12
  br label %lean_dec.exit16

46:                                               ; preds = %41
  %.not.i21 = icmp eq i32 %42, 0
  br i1 %.not.i21, label %lean_dec.exit16, label %47

47:                                               ; preds = %46
  tail call void @lean_dec_ref_cold(ptr noundef nonnull %5) #6
  br label %lean_dec.exit16

lean_dec.exit16:                                  ; preds = %47, %46, %44, %lean_dec.exit17
  %48 = ptrtoint ptr %4 to i64
  %49 = and i64 %48, 1
  %.not30 = icmp eq i64 %49, 0
  br i1 %.not30, label %50, label %lean_dec.exit15

50:                                               ; preds = %lean_dec.exit16
  %51 = load i32, ptr %4, align 4, !tbaa !12
  %52 = icmp sgt i32 %51, 1
  br i1 %52, label %53, label %55, !prof !11

53:                                               ; preds = %50
  %54 = add nsw i32 %51, -1
  store i32 %54, ptr %4, align 4, !tbaa !12
  br label %lean_dec.exit15

55:                                               ; preds = %50
  %.not.i23 = icmp eq i32 %51, 0
  br i1 %.not.i23, label %lean_dec.exit15, label %56

56:                                               ; preds = %55
  tail call void @lean_dec_ref_cold(ptr noundef nonnull %4) #6
  br label %lean_dec.exit15

lean_dec.exit15:                                  ; preds = %56, %55, %53, %lean_dec.exit16
  %57 = ptrtoint ptr %1 to i64
  %58 = and i64 %57, 1
  %.not31 = icmp eq i64 %58, 0
  br i1 %.not31, label %59, label %lean_dec.exit

59:                                               ; preds = %lean_dec.exit15
  %60 = load i32, ptr %1, align 4, !tbaa !12
  %61 = icmp sgt i32 %60, 1
  br i1 %61, label %62, label %64, !prof !11

62:                                               ; preds = %59
  %63 = add nsw i32 %60, -1
  store i32 %63, ptr %1, align 4, !tbaa !12
  br label %lean_dec.exit

64:                                               ; preds = %59
  %.not.i25 = icmp eq i32 %60, 0
  br i1 %.not.i25, label %lean_dec.exit, label %65

65:                                               ; preds = %64
  tail call void @lean_dec_ref_cold(ptr noundef nonnull %1) #6
  br label %lean_dec.exit

lean_dec.exit:                                    ; preds = %65, %64, %62, %lean_dec.exit15
  ret ptr %11
}